target datalayout = "e-m:e-p270:32:32-p271:32:32-p272:64:64-i64:64-i128:128-f80:128-n8:16:32:64-S128"
target triple = "x86_64-pc-linux-gnu"

; Function Attrs: nounwind sspstrong uwtable
define dso_local void @tcg_gen_vec_sar16i_i64(ptr noundef %0, ptr noundef %1, i64 noundef %2) #0 {
  %4 = alloca ptr, align 8
  %5 = alloca ptr, align 8
  %6 = alloca i64, align 8
  %7 = alloca i64, align 8
  %8 = alloca i64, align 8
  %9 = alloca ptr, align 8
  store ptr %0, ptr %4, align 8
  store ptr %1, ptr %5, align 8
  store i64 %2, ptr %6, align 8
  call void @llvm.lifetime.start.p0(i64 8, ptr %7) #10
  %10 = load i64, ptr %6, align 8
  %11 = trunc i64 %10 to i32
  %12 = ashr i32 32768, %11
  %13 = trunc i32 %12 to i16
  %14 = zext i16 %13 to i64
  %15 = mul i64 281479271743489, %14
  store i64 %15, ptr %7, align 8
  call void @llvm.lifetime.start.p0(i64 8, ptr %8) #10
  %16 = load i64, ptr %6, align 8
  %17 = trunc i64 %16 to i32
  %18 = ashr i32 65535, %17
  %19 = trunc i32 %18 to i16
  %20 = zext i16 %19 to i64
  %21 = mul i64 281479271743489, %20
  store i64 %21, ptr %8, align 8
  call void @llvm.lifetime.start.p0(i64 8, ptr %9) #10
  %22 = call ptr @tcg_temp_ebb_new_i64()
  store ptr %22, ptr %9, align 8
  %23 = load ptr, ptr %4, align 8
  %24 = load ptr, ptr %5, align 8
  %25 = load i64, ptr %6, align 8
  call void @tcg_gen_shri_i64(ptr noundef %23, ptr noundef %24, i64 noundef %25)
  %26 = load ptr, ptr %9, align 8
  %27 = load ptr, ptr %4, align 8
  %28 = load i64, ptr %7, align 8
  call void @tcg_gen_andi_i64(ptr noundef %26, ptr noundef %27, i64 noundef %28)
  %29 = load ptr, ptr %4, align 8
  %30 = load ptr, ptr %4, align 8
  %31 = load i64, ptr %8, align 8
  call void @tcg_gen_andi_i64(ptr noundef %29, ptr noundef %30, i64 noundef %31)
  %32 = load ptr, ptr %9, align 8
  %33 = load ptr, ptr %9, align 8
  %34 = load i64, ptr %6, align 8
  %35 = trunc i64 %34 to i32
  %36 = shl i32 2, %35
  %37 = sub i32 %36, 2
  %38 = sext i32 %37 to i64
  call void @tcg_gen_muli_i64(ptr noundef %32, ptr noundef %33, i64 noundef %38)
  %39 = load ptr, ptr %4, align 8
  %40 = load ptr, ptr %4, align 8
  %41 = load ptr, ptr %9, align 8
  call void @tcg_gen_or_i64(ptr noundef %39, ptr noundef %40, ptr noundef %41)
  %42 = load ptr, ptr %9, align 8
  call void @tcg_temp_free_i64(ptr noundef %42)
  call void @llvm.lifetime.end.p0(i64 8, ptr %9) #10
  call void @llvm.lifetime.end.p0(i64 8, ptr %8) #10
  call void @llvm.lifetime.end.p0(i64 8, ptr %7) #10
  ret void
}