; Function Attrs: nounwind sspstrong uwtable
define dso_local void @tcg_gen_vec_sar16i_i64(ptr noundef %0, ptr noundef %1, i64 noundef %2) #2 {
  %4 = trunc i64 %2 to i32
  %5 = lshr i32 32768, %4
  %6 = zext nneg i32 %5 to i64
  %7 = mul nuw i64 %6, 281479271743489
  %8 = lshr i32 65535, %4
  %9 = zext nneg i32 %8 to i64
  %10 = mul nuw i64 %9, 281479271743489
  %11 = tail call ptr @tcg_temp_ebb_new_i64() #10
  tail call void @tcg_gen_shri_i64(ptr noundef %0, ptr noundef %1, i64 noundef %2) #10
  tail call void @tcg_gen_andi_i64(ptr noundef %11, ptr noundef %0, i64 noundef %7) #10
  tail call void @tcg_gen_andi_i64(ptr noundef %0, ptr noundef %0, i64 noundef %10) #10
  %12 = shl i32 2, %4
  %13 = add i32 %12, -2
  %14 = sext i32 %13 to i64
  tail call void @tcg_gen_muli_i64(ptr noundef %11, ptr noundef %11, i64 noundef %14) #10
  tail call void @tcg_gen_or_i64(ptr noundef %0, ptr noundef %0, ptr noundef %11) #10
  tail call void @tcg_temp_free_i64(ptr noundef %11) #10
  ret void
}